; ModuleID = '47/3097.cpp'
source_filename = "47/3097.cpp"
target datalayout = "e-m:e-p270:32:32-p271:32:32-p272:64:64-i64:64-f80:128-n8:16:32:64-S128"
target triple = "x86_64-pc-linux-gnu"

%"class.std::ios_base::Init" = type { i8 }
%"class.std::basic_istream" = type { i32 (...)**, i64, %"class.std::basic_ios" }
%"class.std::basic_ios" = type { %"class.std::ios_base", %"class.std::basic_ostream"*, i8, i8, %"class.std::basic_streambuf"*, %"class.std::ctype"*, %"class.std::num_put"*, %"class.std::num_get"* }
%"class.std::ios_base" = type { i32 (...)**, i64, i64, i32, i32, i32, %"struct.std::ios_base::_Callback_list"*, %"struct.std::ios_base::_Words", [8 x %"struct.std::ios_base::_Words"], i32, %"struct.std::ios_base::_Words"*, %"class.std::locale" }
%"struct.std::ios_base::_Callback_list" = type { %"struct.std::ios_base::_Callback_list"*, void (i32, %"class.std::ios_base"*, i32)*, i32, i32 }
%"struct.std::ios_base::_Words" = type { i8*, i64 }
%"class.std::locale" = type { %"class.std::locale::_Impl"* }
%"class.std::locale::_Impl" = type { i32, %"class.std::locale::facet"**, i64, %"class.std::locale::facet"**, i8** }
%"class.std::locale::facet" = type <{ i32 (...)**, i32, [4 x i8] }>
%"class.std::basic_ostream" = type { i32 (...)**, %"class.std::basic_ios" }
%"class.std::basic_streambuf" = type { i32 (...)**, i8*, i8*, i8*, i8*, i8*, i8*, %"class.std::locale" }
%"class.std::ctype" = type <{ %"class.std::locale::facet.base", [4 x i8], %struct.__locale_struct*, i8, [7 x i8], i32*, i32*, i16*, i8, [256 x i8], [256 x i8], i8, [6 x i8] }>
%"class.std::locale::facet.base" = type <{ i32 (...)**, i32 }>
%struct.__locale_struct = type { [13 x %struct.__locale_data*], i16*, i32*, i32*, [13 x i8*] }
%struct.__locale_data = type opaque
%"class.std::num_put" = type { %"class.std::locale::facet.base", [4 x i8] }
%"class.std::num_get" = type { %"class.std::locale::facet.base", [4 x i8] }

@_ZStL8__ioinit = internal global %"class.std::ios_base::Init" zeroinitializer, align 1
@__dso_handle = external hidden global i8
@_ZSt3cin = external dso_local global %"class.std::basic_istream", align 8
@_ZSt4cout = external dso_local global %"class.std::basic_ostream", align 8
@llvm.global_ctors = appending global [1 x { i32, void ()*, i8* }] [{ i32, void ()*, i8* } { i32 65535, void ()* @_GLOBAL__sub_I_3097.cpp, i8* null }]

; Function Attrs: noinline uwtable
define internal void @__cxx_global_var_init() #0 section ".text.startup" {
  call void @_ZNSt8ios_base4InitC1Ev(%"class.std::ios_base::Init"* @_ZStL8__ioinit)
  %1 = call i32 @__cxa_atexit(void (i8*)* bitcast (void (%"class.std::ios_base::Init"*)* @_ZNSt8ios_base4InitD1Ev to void (i8*)*), i8* getelementptr inbounds (%"class.std::ios_base::Init", %"class.std::ios_base::Init"* @_ZStL8__ioinit, i32 0, i32 0), i8* @__dso_handle) #3
  ret void
}

declare dso_local void @_ZNSt8ios_base4InitC1Ev(%"class.std::ios_base::Init"*) unnamed_addr #1

; Function Attrs: nounwind
declare dso_local void @_ZNSt8ios_base4InitD1Ev(%"class.std::ios_base::Init"*) unnamed_addr #2

; Function Attrs: nounwind
declare dso_local i32 @__cxa_atexit(void (i8*)*, i8*, i8*) #3

; Function Attrs: noinline norecurse uwtable
define dso_local i32 @main() #4 {
  %1 = alloca i32, align 4
  %2 = alloca i32, align 4
  %3 = alloca i32, align 4
  %4 = alloca [100 x i32], align 16
  %5 = alloca i32*, align 8
  %6 = alloca i32*, align 8
  store i32 0, i32* %1, align 4
  %7 = call dereferenceable(280) %"class.std::basic_istream"* @_ZNSirsERi(%"class.std::basic_istream"* @_ZSt3cin, i32* dereferenceable(4) %3)
  %8 = getelementptr inbounds [100 x i32], [100 x i32]* %4, i64 0, i64 0
  store i32* %8, i32** %5, align 8
  br label %9

9:                                                ; preds = %19, %0
  %10 = load i32*, i32** %5, align 8
  %11 = getelementptr inbounds [100 x i32], [100 x i32]* %4, i64 0, i64 0
  %12 = load i32, i32* %3, align 4
  %13 = sext i32 %12 to i64
  %14 = getelementptr inbounds i32, i32* %11, i64 %13
  %15 = icmp ult i32* %10, %14
  br i1 %15, label %16, label %22

16:                                               ; preds = %9
  %17 = load i32*, i32** %5, align 8
  %18 = call dereferenceable(280) %"class.std::basic_istream"* @_ZNSirsERi(%"class.std::basic_istream"* @_ZSt3cin, i32* dereferenceable(4) %17)
  br label %19

19:                                               ; preds = %16
  %20 = load i32*, i32** %5, align 8
  %21 = getelementptr inbounds i32, i32* %20, i32 1
  store i32* %21, i32** %5, align 8
  br label %9

22:                                               ; preds = %9
  %23 = getelementptr inbounds [100 x i32], [100 x i32]* %4, i64 0, i64 0
  store i32* %23, i32** %5, align 8
  %24 = getelementptr inbounds [100 x i32], [100 x i32]* %4, i64 0, i64 0
  %25 = load i32, i32* %3, align 4
  %26 = sext i32 %25 to i64
  %27 = getelementptr inbounds i32, i32* %24, i64 %26
  %28 = getelementptr inbounds i32, i32* %27, i64 -1
  store i32* %28, i32** %6, align 8
  br label %29

29:                                               ; preds = %41, %22
  %30 = load i32*, i32** %5, align 8
  %31 = load i32*, i32** %6, align 8
  %32 = icmp ult i32* %30, %31
  br i1 %32, label %33, label %46

33:                                               ; preds = %29
  %34 = load i32*, i32** %5, align 8
  %35 = load i32, i32* %34, align 4
  store i32 %35, i32* %2, align 4
  %36 = load i32*, i32** %6, align 8
  %37 = load i32, i32* %36, align 4
  %38 = load i32*, i32** %5, align 8
  store i32 %37, i32* %38, align 4
  %39 = load i32, i32* %2, align 4
  %40 = load i32*, i32** %6, align 8
  store i32 %39, i32* %40, align 4
  br label %41

41:                                               ; preds = %33
  %42 = load i32*, i32** %5, align 8
  %43 = getelementptr inbounds i32, i32* %42, i32 1
  store i32* %43, i32** %5, align 8
  %44 = load i32*, i32** %6, align 8
  %45 = getelementptr inbounds i32, i32* %44, i32 -1
  store i32* %45, i32** %6, align 8
  br label %29

46:                                               ; preds = %29
  %47 = getelementptr inbounds [100 x i32], [100 x i32]* %4, i64 0, i64 0
  store i32* %47, i32** %5, align 8
  br label %48

48:                                               ; preds = %65, %46
  %49 = load i32*, i32** %5, align 8
  %50 = getelementptr inbounds [100 x i32], [100 x i32]* %4, i64 0, i64 0
  %51 = load i32, i32* %3, align 4
  %52 = sext i32 %51 to i64
  %53 = getelementptr inbounds i32, i32* %50, i64 %52
  %54 = icmp ult i32* %49, %53
  br i1 %54, label %55, label %68

55:                                               ; preds = %48
  %56 = load i32*, i32** %5, align 8
  %57 = getelementptr inbounds [100 x i32], [100 x i32]* %4, i64 0, i64 0
  %58 = icmp ugt i32* %56, %57
  br i1 %58, label %59, label %61

59:                                               ; preds = %55
  %60 = call dereferenceable(272) %"class.std::basic_ostream"* @_ZStlsISt11char_traitsIcEERSt13basic_ostreamIcT_ES5_c(%"class.std::basic_ostream"* dereferenceable(272) @_ZSt4cout, i8 signext 32)
  br label %61

61:                                               ; preds = %59, %55
  %62 = load i32*, i32** %5, align 8
  %63 = load i32, i32* %62, align 4
  %64 = call dereferenceable(272) %"class.std::basic_ostream"* @_ZNSolsEi(%"class.std::basic_ostream"* @_ZSt4cout, i32 %63)
  br label %65

65:                                               ; preds = %61
  %66 = load i32*, i32** %5, align 8
  %67 = getelementptr inbounds i32, i32* %66, i32 1
  store i32* %67, i32** %5, align 8
  br label %48

68:                                               ; preds = %48
  ret i32 0
}

declare dso_local dereferenceable(280) %"class.std::basic_istream"* @_ZNSirsERi(%"class.std::basic_istream"*, i32* dereferenceable(4)) #1

declare dso_local dereferenceable(272) %"class.std::basic_ostream"* @_ZStlsISt11char_traitsIcEERSt13basic_ostreamIcT_ES5_c(%"class.std::basic_ostream"* dereferenceable(272), i8 signext) #1

declare dso_local dereferenceable(272) %"class.std::basic_ostream"* @_ZNSolsEi(%"class.std::basic_ostream"*, i32) #1

; Function Attrs: noinline uwtable
define internal void @_GLOBAL__sub_I_3097.cpp() #0 section ".text.startup" {
  call void @__cxx_global_var_init()
  ret void
}


!llvm.module.flags = !{!0}
!llvm.ident = !{!1}

!0 = !{i32 1, !"wchar_size", i32 4}
!1 = !{!"clang version 10.0.0-4ubuntu1 "}
